target datalayout = "e-m:e-p270:32:32-p271:32:32-p272:64:64-i64:64-i128:128-f80:128-n8:16:32:64-S128"
target triple = "x86_64-pc-linux-gnu"

%struct.pg_sha1_ctx = type { %union.anon, %union.anon.0, %union.anon.1, i8 }
%union.anon = type { [5 x i32] }
%union.anon.0 = type { [1 x i64] }
%union.anon.1 = type { [16 x i32] }

; Function Attrs: nounwind uwtable
define dso_local void @pg_sha1_update(ptr noundef %0, ptr noundef %1, i64 noundef %2) #0 {
  %4 = alloca ptr, align 8
  %5 = alloca ptr, align 8
  %6 = alloca i64, align 8
  %7 = alloca ptr, align 8
  %8 = alloca i64, align 8
  %9 = alloca i64, align 8
  %10 = alloca i64, align 8
  %11 = alloca i64, align 8
  store ptr %0, ptr %4, align 8
  store ptr %1, ptr %5, align 8
  store i64 %2, ptr %6, align 8
  call void @llvm.lifetime.start.p0(i64 8, ptr %7) #4
  call void @llvm.lifetime.start.p0(i64 8, ptr %8) #4
  call void @llvm.lifetime.start.p0(i64 8, ptr %9) #4
  call void @llvm.lifetime.start.p0(i64 8, ptr %10) #4
  call void @llvm.lifetime.start.p0(i64 8, ptr %11) #4
  %12 = load ptr, ptr %5, align 8
  store ptr %12, ptr %7, align 8
  store i64 0, ptr %10, align 8
  br label %13

13:                                               ; preds = %75, %3
  %14 = load i64, ptr %10, align 8
  %15 = load i64, ptr %6, align 8
  %16 = icmp ult i64 %14, %15
  br i1 %16, label %17, label %79

17:                                               ; preds = %13
  %18 = load ptr, ptr %4, align 8
  %19 = getelementptr inbounds nuw %struct.pg_sha1_ctx, ptr %18, i32 0, i32 3
  %20 = load i8, ptr %19, align 8
  %21 = zext i8 %20 to i32
  %22 = srem i32 %21, 64
  %23 = sext i32 %22 to i64
  store i64 %23, ptr %9, align 8
  %24 = load i64, ptr %9, align 8
  %25 = sub i64 64, %24
  store i64 %25, ptr %8, align 8
  %26 = load i64, ptr %8, align 8
  %27 = load i64, ptr %6, align 8
  %28 = load i64, ptr %10, align 8
  %29 = sub i64 %27, %28
  %30 = icmp ult i64 %26, %29
  br i1 %30, label %31, label %33

31:                                               ; preds = %17
  %32 = load i64, ptr %8, align 8
  br label %37

33:                                               ; preds = %17
  %34 = load i64, ptr %6, align 8
  %35 = load i64, ptr %10, align 8
  %36 = sub i64 %34, %35
  br label %37

37:                                               ; preds = %33, %31
  %38 = phi i64 [ %32, %31 ], [ %36, %33 ]
  store i64 %38, ptr %11, align 8
  %39 = load ptr, ptr %4, align 8
  %40 = getelementptr inbounds nuw %struct.pg_sha1_ctx, ptr %39, i32 0, i32 2
  %41 = load i64, ptr %9, align 8
  %42 = getelementptr inbounds nuw [64 x i8], ptr %40, i64 0, i64 %41
  %43 = load ptr, ptr %7, align 8
  %44 = load i64, ptr %10, align 8
  %45 = getelementptr inbounds nuw i8, ptr %43, i64 %44
  %46 = load i64, ptr %11, align 8
  call void @llvm.memmove.p0.p0.i64(ptr align 1 %42, ptr align 1 %45, i64 %46, i1 false)
  %47 = load i64, ptr %11, align 8
  %48 = load ptr, ptr %4, align 8
  %49 = getelementptr inbounds nuw %struct.pg_sha1_ctx, ptr %48, i32 0, i32 3
  %50 = load i8, ptr %49, align 8
  %51 = zext i8 %50 to i64
  %52 = add i64 %51, %47
  %53 = trunc i64 %52 to i8
  store i8 %53, ptr %49, align 8
  %54 = load ptr, ptr %4, align 8
  %55 = getelementptr inbounds nuw %struct.pg_sha1_ctx, ptr %54, i32 0, i32 3
  %56 = load i8, ptr %55, align 8
  %57 = zext i8 %56 to i32
  %58 = srem i32 %57, 64
  %59 = trunc i32 %58 to i8
  store i8 %59, ptr %55, align 8
  %60 = load i64, ptr %11, align 8
  %61 = mul i64 %60, 8
  %62 = load ptr, ptr %4, align 8
  %63 = getelementptr inbounds nuw %struct.pg_sha1_ctx, ptr %62, i32 0, i32 1
  %64 = getelementptr inbounds [1 x i64], ptr %63, i64 0, i64 0
  %65 = load i64, ptr %64, align 8
  %66 = add i64 %65, %61
  store i64 %66, ptr %64, align 8
  %67 = load ptr, ptr %4, align 8
  %68 = getelementptr inbounds nuw %struct.pg_sha1_ctx, ptr %67, i32 0, i32 3
  %69 = load i8, ptr %68, align 8
  %70 = zext i8 %69 to i32
  %71 = srem i32 %70, 64
  %72 = icmp eq i32 %71, 0
  br i1 %72, label %73, label %75

73:                                               ; preds = %37
  %74 = load ptr, ptr %4, align 8
  call void @sha1_step(ptr noundef %74)
  br label %75

75:                                               ; preds = %73, %37
  %76 = load i64, ptr %11, align 8
  %77 = load i64, ptr %10, align 8
  %78 = add i64 %77, %76
  store i64 %78, ptr %10, align 8
  br label %13, !llvm.loop !4

79:                                               ; preds = %13
  call void @llvm.lifetime.end.p0(i64 8, ptr %11) #4
  call void @llvm.lifetime.end.p0(i64 8, ptr %10) #4
  call void @llvm.lifetime.end.p0(i64 8, ptr %9) #4
  call void @llvm.lifetime.end.p0(i64 8, ptr %8) #4
  call void @llvm.lifetime.end.p0(i64 8, ptr %7) #4
  ret void
}