; Function Attrs: nofree norecurse nosync nounwind memory(argmem: readwrite) uwtable
define dso_local void @pg_sha1_update(ptr noundef %0, ptr noundef readonly captures(none) %1, i64 noundef %2) local_unnamed_addr #2 {
  %.not = icmp eq i64 %2, 0
  br i1 %.not, label %._crit_edge, label %.lr.ph

.lr.ph:                                           ; preds = %3
  %4 = getelementptr inbounds nuw i8, ptr %0, i64 96
  %5 = getelementptr inbounds nuw i8, ptr %0, i64 32
  %6 = getelementptr inbounds nuw i8, ptr %0, i64 24
  br label %7

7:                                                ; preds = %.lr.ph, %25
  %.025 = phi i64 [ 0, %.lr.ph ], [ %26, %25 ]
  %8 = load i8, ptr %4, align 8
  %9 = and i8 %8, 63
  %10 = zext nneg i8 %9 to i64
  %11 = sub nuw nsw i64 64, %10
  %12 = sub nuw i64 %2, %.025
  %13 = tail call i64 @llvm.umin.i64(i64 %11, i64 %12)
  %14 = getelementptr inbounds nuw [64 x i8], ptr %5, i64 0, i64 %10
  %15 = getelementptr inbounds nuw i8, ptr %1, i64 %.025
  tail call void @llvm.memmove.p0.p0.i64(ptr nonnull align 1 %14, ptr align 1 %15, i64 %13, i1 false)
  %16 = load i8, ptr %4, align 8
  %17 = trunc nuw nsw i64 %13 to i8
  %18 = add i8 %16, %17
  %19 = and i8 %18, 63
  store i8 %19, ptr %4, align 8
  %20 = shl nuw nsw i64 %13, 3
  %21 = load i64, ptr %6, align 8
  %22 = add i64 %20, %21
  store i64 %22, ptr %6, align 8
  %23 = icmp eq i8 %19, 0
  br i1 %23, label %24, label %25

24:                                               ; preds = %7
  tail call fastcc void @sha1_step(ptr noundef nonnull %0)
  br label %25

25:                                               ; preds = %24, %7
  %26 = add i64 %13, %.025
  %27 = icmp ult i64 %26, %2
  br i1 %27, label %7, label %._crit_edge, !llvm.loop !4

._crit_edge:                                      ; preds = %25, %3
  ret void
}